Certificate:
    Data:
        Version: 3 (0x2)
        Serial Number: 0 (0x0)
        Signature Algorithm: ecdsa-with-SHA256
        Issuer: CN=www.ipzs.it/emailAddress=protocollo@ipzs.it, O=IPZS, L=Roma, C=IT
        Validity
            Not Before: Jul  8 16:12:24 2024 GMT
            Not After : Jul  8 16:12:24 2025 GMT
        Subject: C=IT, L=Roma, O=CIE, CN=www.cie.it/emailAddress=protocollo@cie.it
        Subject Public Key Info:
            Public Key Algorithm: id-ecPublicKey
                Public-Key: (256 bit)
                pub:
                    04:9d:53:99:4c:23:04:5e:76:b8:bb:49:d0:5e:4a:
                    ec:7f:e9:65:9a:b3:d3:52:cc:9e:2d:89:c6:03:42:
                    a9:64:7c:09:92:6f:14:3f:eb:30:35:14:75:52:d8:
                    61:ce:d5:f5:61:ee:29:a7:6c:df:d1:92:16:b9:60:
                    32:6c:59:19:57
                ASN1 OID: prime256v1
                NIST CURVE: P-256
        X509v3 extensions:
            X509v3 Subject Alternative Name: 
                DNS:www.cie.com, DNS:cie.com, DNS:*.cie.com
            1.2.3.4.1: 
                .
NOME=Mario
            1.2.3.4.2: 
                .COGNOME=Rossi
            1.2.3.4.3: 
                ..SESSO=M
            1.2.3.4.4: 
                ..DATA_NASCITA=01/01/1980
            1.2.3.4.5: 
                ..LUOGO_NASCITA=RM
            1.2.3.4.6: 
                ..STATURA=180
            1.2.3.4.7: 
                ..DATA_EMISSIONE=30/01/2024
            1.2.3.4.8: 
                ..CITTADINANZA=ITA
            1.2.3.4.9: 
                ..SCADENZA=01/01/2034
            1.2.3.4.10: 
                ..SERIALE=RU65839UJ
            X509v3 Subject Key Identifier: 
                95:46:00:0B:E7:90:53:75:3E:FD:28:CA:7E:71:2D:BB:DD:FB:CD:22
            X509v3 Authority Key Identifier: 
                DirName:/CN=www.ipzs.it/emailAddress=protocollo@ipzs.it/O=IPZS/L=Roma/C=IT
                serial:5E:96:74:33:E5:8F:A3:FE:1F:A5:93:79:47:EF:1B:07:E9:A2:E1:7A
    Signature Algorithm: ecdsa-with-SHA256
    Signature Value:
        30:45:02:20:04:81:a1:66:36:31:4b:63:d6:e7:5d:97:57:d7:
        f2:e2:af:66:db:7c:b7:de:1c:38:62:d5:f4:46:bb:3c:a5:a5:
        02:21:00:9f:05:0c:99:36:14:ef:9d:77:7c:18:a3:fe:1c:eb:
        9d:c6:0a:26:fc:88:24:9c:ab:46:90:eb:c7:ba:2a:9e:ed
-----BEGIN CERTIFICATE-----
MIIDqDCCA06gAwIBAgIBADAKBggqhkjOPQQDAjBkMRQwEgYDVQQDDAt3d3cuaXB6
cy5pdDEhMB8GCSqGSIb3DQEJARYScHJvdG9jb2xsb0BpcHpzLml0MQ0wCwYDVQQK
DARJUFpTMQ0wCwYDVQQHDARSb21hMQswCQYDVQQGEwJJVDAeFw0yNDA3MDgxNjEy
MjRaFw0yNTA3MDgxNjEyMjRaMGExCzAJBgNVBAYTAklUMQ0wCwYDVQQHDARSb21h
MQwwCgYDVQQKDANDSUUxEzARBgNVBAMMCnd3dy5jaWUuaXQxIDAeBgkqhkiG9w0B
CQEWEXByb3RvY29sbG9AY2llLml0MFkwEwYHKoZIzj0CAQYIKoZIzj0DAQcDQgAE
nVOZTCMEXna4u0nQXkrsf+llmrPTUsyeLYnGA0KpZHwJkm8UP+swNRR1UthhztX1
Ye4pp2zf0ZIWuWAybFkZV6OCAfIwggHuMCoGA1UdEQQjMCGCC3d3dy5jaWUuY29t
ggdjaWUuY29tggkqLmNpZS5jb20wFAYEKgMEAQQMDApOT01FPU1hcmlvMBcGBCoD
BAIEDwwNQ09HTk9NRT1Sb3NzaTARBgQqAwQDBAkMB1NFU1NPPU0wIQYEKgMEBAQZ
DBdEQVRBX05BU0NJVEE9MDEvMDEvMTk4MDAaBgQqAwQFBBIMEExVT0dPX05BU0NJ
VEE9Uk0wFQYEKgMEBgQNDAtTVEFUVVJBPTE4MDAjBgQqAwQHBBsMGURBVEFfRU1J
U1NJT05FPTMwLzAxLzIwMjQwGgYEKgMECAQSDBBDSVRUQURJTkFOWkE9SVRBMB0G
BCoDBAkEFQwTU0NBREVOWkE9MDEvMDEvMjAzNDAbBgQqAwQKBBMMEVNFUklBTEU9
UlU2NTgzOVVKMB0GA1UdDgQWBBSVRgAL55BTdT79KMp+cS273fvNIjCBiwYDVR0j
BIGDMIGAoWikZjBkMRQwEgYDVQQDDAt3d3cuaXB6cy5pdDEhMB8GCSqGSIb3DQEJ
ARYScHJvdG9jb2xsb0BpcHpzLml0MQ0wCwYDVQQKDARJUFpTMQ0wCwYDVQQHDARS
b21hMQswCQYDVQQGEwJJVIIUXpZ0M+WPo/4fpZN5R+8bB+mi4XowCgYIKoZIzj0E
AwIDSAAwRQIgBIGhZjYxS2PW512XV9fy4q9m23y33hw4YtX0Rrs8paUCIQCfBQyZ
NhTvnXd8GKP+HOudxgom/IgknKtGkOvHuiqe7Q==
-----END CERTIFICATE-----
