Certificate:
    Data:
        Version: 3 (0x2)
        Serial Number: 2 (0x2)
        Signature Algorithm: ecdsa-with-SHA256
        Issuer: CN=www.ipzs.it/emailAddress=protocollo@ipzs.it, O=IPZS, L=Roma, C=IT
        Validity
            Not Before: Jul  8 16:12:38 2024 GMT
            Not After : Jul  8 16:12:38 2025 GMT
        Subject: C=IT, L=Roma, O=server, CN=www.server_residenza.it/emailAddress=protocollo@server_residenza.it
        Subject Public Key Info:
            Public Key Algorithm: id-ecPublicKey
                Public-Key: (256 bit)
                pub:
                    04:e0:57:ec:62:77:65:6e:e6:bb:8b:d9:f3:4a:a1:
                    ab:5a:5e:d2:d0:97:8a:96:31:63:b2:ee:30:c8:7c:
                    b6:79:96:cb:21:ac:e1:9a:8f:e7:c1:53:ad:30:7e:
                    a3:6f:b0:24:ea:eb:08:4a:6d:25:64:59:03:93:b4:
                    ee:7f:29:1c:86
                ASN1 OID: prime256v1
                NIST CURVE: P-256
        X509v3 extensions:
            X509v3 Subject Alternative Name: 
                DNS:www.server_residenza.com, DNS:server_residenza.com, DNS:*.server_residenza.com
            X509v3 Subject Key Identifier: 
                4C:33:DA:92:35:6F:54:A7:15:61:1B:C7:61:BF:69:10:45:89:D8:B7
            X509v3 Authority Key Identifier: 
                DirName:/CN=www.ipzs.it/emailAddress=protocollo@ipzs.it/O=IPZS/L=Roma/C=IT
                serial:5E:96:74:33:E5:8F:A3:FE:1F:A5:93:79:47:EF:1B:07:E9:A2:E1:7A
    Signature Algorithm: ecdsa-with-SHA256
    Signature Value:
        30:45:02:20:49:c7:f0:e1:2d:38:0b:b5:81:da:ec:c9:54:22:
        79:2b:d9:5b:42:95:76:ba:9c:1e:1b:fc:56:45:73:de:7b:d6:
        02:21:00:ac:16:7a:63:1c:fb:92:c1:fb:32:96:d9:b0:76:1f:
        c4:40:06:2e:4d:39:07:5b:61:64:de:30:3d:a4:f7:89:e9
-----BEGIN CERTIFICATE-----
MIIC1zCCAn2gAwIBAgIBAjAKBggqhkjOPQQDAjBkMRQwEgYDVQQDDAt3d3cuaXB6
cy5pdDEhMB8GCSqGSIb3DQEJARYScHJvdG9jb2xsb0BpcHpzLml0MQ0wCwYDVQQK
DARJUFpTMQ0wCwYDVQQHDARSb21hMQswCQYDVQQGEwJJVDAeFw0yNDA3MDgxNjEy
MzhaFw0yNTA3MDgxNjEyMzhaMH4xCzAJBgNVBAYTAklUMQ0wCwYDVQQHDARSb21h
MQ8wDQYDVQQKDAZzZXJ2ZXIxIDAeBgNVBAMMF3d3dy5zZXJ2ZXJfcmVzaWRlbnph
Lml0MS0wKwYJKoZIhvcNAQkBFh5wcm90b2NvbGxvQHNlcnZlcl9yZXNpZGVuemEu
aXQwWTATBgcqhkjOPQIBBggqhkjOPQMBBwNCAATgV+xid2Vu5ruL2fNKoataXtLQ
l4qWMWOy7jDIfLZ5lsshrOGaj+fBU60wfqNvsCTq6whKbSVkWQOTtO5/KRyGo4IB
BDCCAQAwUQYDVR0RBEowSIIYd3d3LnNlcnZlcl9yZXNpZGVuemEuY29tghRzZXJ2
ZXJfcmVzaWRlbnphLmNvbYIWKi5zZXJ2ZXJfcmVzaWRlbnphLmNvbTAdBgNVHQ4E
FgQUTDPakjVvVKcVYRvHYb9pEEWJ2LcwgYsGA1UdIwSBgzCBgKFopGYwZDEUMBIG
A1UEAwwLd3d3LmlwenMuaXQxITAfBgkqhkiG9w0BCQEWEnByb3RvY29sbG9AaXB6
cy5pdDENMAsGA1UECgwESVBaUzENMAsGA1UEBwwEUm9tYTELMAkGA1UEBhMCSVSC
FF6WdDPlj6P+H6WTeUfvGwfpouF6MAoGCCqGSM49BAMCA0gAMEUCIEnH8OEtOAu1
gdrsyVQieSvZW0KVdrqcHhv8VkVz3nvWAiEArBZ6Yxz7ksH7MpbZsHYfxEAGLk05
B1thZN4wPaT3iek=
-----END CERTIFICATE-----
