Certificate:
    Data:
        Version: 3 (0x2)
        Serial Number: 1 (0x1)
        Signature Algorithm: ecdsa-with-SHA256
        Issuer: CN=www.ipzs.it/emailAddress=protocollo@ipzs.it, O=IPZS, L=Roma, C=IT
        Validity
            Not Before: Jul  8 16:12:36 2024 GMT
            Not After : Jul  8 16:12:36 2025 GMT
        Subject: C=IT, L=Roma, O=arc, CN=www.arc.it/emailAddress=protocollo@arc.it
        Subject Public Key Info:
            Public Key Algorithm: id-ecPublicKey
                Public-Key: (256 bit)
                pub:
                    04:1f:15:dc:d8:7e:74:d1:5d:95:01:39:30:b6:68:
                    5f:61:29:c4:41:4a:b9:af:e9:b7:cf:9b:06:99:7b:
                    27:6f:4a:31:7f:88:ea:9a:85:28:99:c9:38:56:ce:
                    17:49:6e:39:d5:a0:45:d3:5c:78:e6:8e:9c:c4:7e:
                    ce:63:9f:3e:27
                ASN1 OID: prime256v1
                NIST CURVE: P-256
        X509v3 extensions:
            X509v3 Subject Alternative Name: 
                DNS:www.arc.com, DNS:arc.com, DNS:*.arc.com
            X509v3 Subject Key Identifier: 
                00:6E:49:07:3C:81:41:DE:A1:10:BB:7F:43:49:8F:AC:0B:FB:5B:F8
            X509v3 Authority Key Identifier: 
                DirName:/CN=www.ipzs.it/emailAddress=protocollo@ipzs.it/O=IPZS/L=Roma/C=IT
                serial:5E:96:74:33:E5:8F:A3:FE:1F:A5:93:79:47:EF:1B:07:E9:A2:E1:7A
    Signature Algorithm: ecdsa-with-SHA256
    Signature Value:
        30:46:02:21:00:ee:b4:53:ab:12:45:f4:2a:3d:ef:c9:d9:94:
        68:c2:f5:27:75:c0:ee:54:fc:de:84:8a:88:cf:42:71:c8:f2:
        24:02:21:00:a8:3e:4b:32:c0:e0:e9:79:e1:a2:7d:3d:be:4c:
        ef:46:71:49:a3:1a:87:44:cb:b2:cf:52:65:32:59:b1:c7:4b
-----BEGIN CERTIFICATE-----
MIICkjCCAjegAwIBAgIBATAKBggqhkjOPQQDAjBkMRQwEgYDVQQDDAt3d3cuaXB6
cy5pdDEhMB8GCSqGSIb3DQEJARYScHJvdG9jb2xsb0BpcHpzLml0MQ0wCwYDVQQK
DARJUFpTMQ0wCwYDVQQHDARSb21hMQswCQYDVQQGEwJJVDAeFw0yNDA3MDgxNjEy
MzZaFw0yNTA3MDgxNjEyMzZaMGExCzAJBgNVBAYTAklUMQ0wCwYDVQQHDARSb21h
MQwwCgYDVQQKDANhcmMxEzARBgNVBAMMCnd3dy5hcmMuaXQxIDAeBgkqhkiG9w0B
CQEWEXByb3RvY29sbG9AYXJjLml0MFkwEwYHKoZIzj0CAQYIKoZIzj0DAQcDQgAE
HxXc2H500V2VATkwtmhfYSnEQUq5r+m3z5sGmXsnb0oxf4jqmoUomck4Vs4XSW45
1aBF01x45o6cxH7OY58+J6OB3DCB2TAqBgNVHREEIzAhggt3d3cuYXJjLmNvbYIH
YXJjLmNvbYIJKi5hcmMuY29tMB0GA1UdDgQWBBQAbkkHPIFB3qEQu39DSY+sC/tb
+DCBiwYDVR0jBIGDMIGAoWikZjBkMRQwEgYDVQQDDAt3d3cuaXB6cy5pdDEhMB8G
CSqGSIb3DQEJARYScHJvdG9jb2xsb0BpcHpzLml0MQ0wCwYDVQQKDARJUFpTMQ0w
CwYDVQQHDARSb21hMQswCQYDVQQGEwJJVIIUXpZ0M+WPo/4fpZN5R+8bB+mi4Xow
CgYIKoZIzj0EAwIDSQAwRgIhAO60U6sSRfQqPe/J2ZRowvUndcDuVPzehIqIz0Jx
yPIkAiEAqD5LMsDg6Xnhon09vkzvRnFJoxqHRMuyz1JlMlmxx0s=
-----END CERTIFICATE-----
