Certificate:
    Data:
        Version: 3 (0x2)
        Serial Number: 3 (0x3)
        Signature Algorithm: ecdsa-with-SHA256
        Issuer: CN=www.ipzs.it/emailAddress=protocollo@ipzs.it, O=IPZS, L=Roma, C=IT
        Validity
            Not Before: Jul  8 16:12:39 2024 GMT
            Not After : Jul  8 16:12:39 2025 GMT
        Subject: C=IT, L=Roma, O=server, CN=www.server_isee.it/emailAddress=protocollo@server_isee.it
        Subject Public Key Info:
            Public Key Algorithm: id-ecPublicKey
                Public-Key: (256 bit)
                pub:
                    04:3e:3d:73:7a:8a:96:ae:39:52:eb:a7:00:d6:6c:
                    5f:3b:ae:a9:6d:e2:19:c0:7c:41:db:4b:db:61:07:
                    bb:91:84:4e:ab:33:f7:77:03:ea:b9:dd:60:be:0f:
                    03:b1:3f:56:59:8d:72:5c:45:c1:46:07:71:cd:b0:
                    76:d9:6f:81:f9
                ASN1 OID: prime256v1
                NIST CURVE: P-256
        X509v3 extensions:
            X509v3 Subject Alternative Name: 
                DNS:www.server_isee.com, DNS:server_isee.com, DNS:*.server_isee.com
            X509v3 Subject Key Identifier: 
                09:DC:67:54:AA:99:DC:0F:6A:56:4A:C7:D5:0B:6B:24:EE:2F:FA:1A
            X509v3 Authority Key Identifier: 
                DirName:/CN=www.ipzs.it/emailAddress=protocollo@ipzs.it/O=IPZS/L=Roma/C=IT
                serial:5E:96:74:33:E5:8F:A3:FE:1F:A5:93:79:47:EF:1B:07:E9:A2:E1:7A
    Signature Algorithm: ecdsa-with-SHA256
    Signature Value:
        30:46:02:21:00:dc:fb:b8:54:c6:e5:72:f6:d9:ec:e1:a0:39:
        e6:a3:eb:cf:51:12:18:23:a3:eb:c7:bc:ed:82:c5:76:d5:ca:
        45:02:21:00:89:2f:d5:8a:ef:4d:09:83:b8:22:02:8f:e7:48:
        ea:43:a1:1e:ec:71:82:87:c1:fe:7a:1c:b0:66:b4:07:f6:24
-----BEGIN CERTIFICATE-----
MIICvTCCAmKgAwIBAgIBAzAKBggqhkjOPQQDAjBkMRQwEgYDVQQDDAt3d3cuaXB6
cy5pdDEhMB8GCSqGSIb3DQEJARYScHJvdG9jb2xsb0BpcHpzLml0MQ0wCwYDVQQK
DARJUFpTMQ0wCwYDVQQHDARSb21hMQswCQYDVQQGEwJJVDAeFw0yNDA3MDgxNjEy
MzlaFw0yNTA3MDgxNjEyMzlaMHQxCzAJBgNVBAYTAklUMQ0wCwYDVQQHDARSb21h
MQ8wDQYDVQQKDAZzZXJ2ZXIxGzAZBgNVBAMMEnd3dy5zZXJ2ZXJfaXNlZS5pdDEo
MCYGCSqGSIb3DQEJARYZcHJvdG9jb2xsb0BzZXJ2ZXJfaXNlZS5pdDBZMBMGByqG
SM49AgEGCCqGSM49AwEHA0IABD49c3qKlq45UuunANZsXzuuqW3iGcB8QdtL22EH
u5GETqsz93cD6rndYL4PA7E/VlmNclxFwUYHcc2wdtlvgfmjgfQwgfEwQgYDVR0R
BDswOYITd3d3LnNlcnZlcl9pc2VlLmNvbYIPc2VydmVyX2lzZWUuY29tghEqLnNl
cnZlcl9pc2VlLmNvbTAdBgNVHQ4EFgQUCdxnVKqZ3A9qVkrH1QtrJO4v+howgYsG
A1UdIwSBgzCBgKFopGYwZDEUMBIGA1UEAwwLd3d3LmlwenMuaXQxITAfBgkqhkiG
9w0BCQEWEnByb3RvY29sbG9AaXB6cy5pdDENMAsGA1UECgwESVBaUzENMAsGA1UE
BwwEUm9tYTELMAkGA1UEBhMCSVSCFF6WdDPlj6P+H6WTeUfvGwfpouF6MAoGCCqG
SM49BAMCA0kAMEYCIQDc+7hUxuVy9tns4aA55qPrz1ESGCOj68e87YLFdtXKRQIh
AIkv1YrvTQmDuCICj+dI6kOhHuxxgofB/nocsGa0B/Yk
-----END CERTIFICATE-----
